; Function Attrs: mustprogress uwtable
define hidden noundef zeroext i1 @_ZN18OpenImageIO_v2_6_08PNGInput5closeEv(ptr noundef nonnull align 8 dereferenceable(312) %this) unnamed_addr #5 align 2 personality ptr @__gxx_personality_v0 {
entry:
  %m_png = getelementptr inbounds i8, ptr %this, i64 216
  %m_info = getelementptr inbounds i8, ptr %this, i64 224
  %0 = load ptr, ptr %m_png, align 8
  %tobool.not.i = icmp eq ptr %0, null
  %1 = load ptr, ptr %m_info, align 8
  %tobool1.not.i = icmp eq ptr %1, null
  %or.cond.i = select i1 %tobool.not.i, i1 true, i1 %tobool1.not.i
  br i1 %or.cond.i, label %_ZN18OpenImageIO_v2_6_07PNG_pvt19destroy_read_structERP14png_struct_defRP12png_info_def.exit, label %if.then.i

if.then.i:                                        ; preds = %entry
  tail call void @png_destroy_read_struct(ptr noundef nonnull %m_png, ptr noundef nonnull %m_info, ptr noundef null)
  br label %_ZN18OpenImageIO_v2_6_07PNG_pvt19destroy_read_structERP14png_struct_defRP12png_info_def.exit

_ZN18OpenImageIO_v2_6_07PNG_pvt19destroy_read_structERP14png_struct_defRP12png_info_def.exit: ; preds = %entry, %if.then.i
  %m_subimage.i = getelementptr inbounds i8, ptr %this, i64 272
  store i32 -1, ptr %m_subimage.i, align 8
  %m_buf.i = getelementptr inbounds i8, ptr %this, i64 248
  tail call void @llvm.memset.p0.i64(ptr noundef nonnull align 8 dereferenceable(16) %m_png, i8 0, i64 16, i1 false)
  %2 = load ptr, ptr %m_buf.i, align 8
  %_M_finish.i.i.i = getelementptr inbounds i8, ptr %this, i64 256
  %3 = load ptr, ptr %_M_finish.i.i.i, align 8
  %tobool.not.i.i.i = icmp eq ptr %3, %2
  br i1 %tobool.not.i.i.i, label %_ZNSt6vectorIhSaIhEE5clearEv.exit.i, label %invoke.cont.i.i.i

invoke.cont.i.i.i:                                ; preds = %_ZN18OpenImageIO_v2_6_07PNG_pvt19destroy_read_structERP14png_struct_defRP12png_info_def.exit
  store ptr %2, ptr %_M_finish.i.i.i, align 8
  br label %_ZNSt6vectorIhSaIhEE5clearEv.exit.i

_ZNSt6vectorIhSaIhEE5clearEv.exit.i:              ; preds = %invoke.cont.i.i.i, %_ZN18OpenImageIO_v2_6_07PNG_pvt19destroy_read_structERP14png_struct_defRP12png_info_def.exit
  %m_next_scanline.i = getelementptr inbounds i8, ptr %this, i64 288
  store i32 0, ptr %m_next_scanline.i, align 8
  %m_keep_unassociated_alpha.i = getelementptr inbounds i8, ptr %this, i64 292
  store i8 0, ptr %m_keep_unassociated_alpha.i, align 4
  %m_err.i = getelementptr inbounds i8, ptr %this, i64 304
  store i8 0, ptr %m_err.i, align 8
  %m_config.i = getelementptr inbounds i8, ptr %this, i64 296
  %4 = load ptr, ptr %m_config.i, align 8
  store ptr null, ptr %m_config.i, align 8
  %tobool.not.i.i1.i = icmp eq ptr %4, null
  br i1 %tobool.not.i.i1.i, label %_ZN18OpenImageIO_v2_6_08PNGInput4initEv.exit, label %if.then.i.i.i

if.then.i.i.i:                                    ; preds = %_ZNSt6vectorIhSaIhEE5clearEv.exit.i
  tail call void @_ZNKSt14default_deleteIN18OpenImageIO_v2_6_09ImageSpecEEclEPS1_(ptr noundef nonnull align 1 dereferenceable(1) %m_config.i, ptr noundef nonnull %4)
  br label %_ZN18OpenImageIO_v2_6_08PNGInput4initEv.exit

_ZN18OpenImageIO_v2_6_08PNGInput4initEv.exit:     ; preds = %_ZNSt6vectorIhSaIhEE5clearEv.exit.i, %if.then.i.i.i
  tail call void @_ZN18OpenImageIO_v2_6_010ImageInput13ioproxy_clearEv(ptr noundef nonnull align 8 dereferenceable(184) %this)
  ret i1 true
}